; Function Attrs: mustprogress uwtable
define void @_ZN8facebook5velox26deregisterNamedVectorSerdeESt17basic_string_viewIcSt11char_traitsIcEE(i64 %serdeName.coerce0, ptr %serdeName.coerce1) local_unnamed_addr #0 personality ptr @__gxx_personality_v0 {
entry:
  %agg.tmp.i = alloca %"struct.std::__cxx11::basic_string<char>::__sv_wrapper", align 8
  %ref.tmp = alloca %"class.std::__cxx11::basic_string", align 8
  %ref.tmp1 = alloca %"class.std::allocator.10", align 1
  %0 = load atomic i8, ptr @_ZGVZN8facebook5velox12_GLOBAL__N_123getNamedVectorSerdeImplB5cxx11EvE10namedSerdeB5cxx11 acquire, align 8
  %guard.uninitialized.i = icmp eq i8 %0, 0
  br i1 %guard.uninitialized.i, label %init.check.i, label %_ZN8facebook5velox12_GLOBAL__N_123getNamedVectorSerdeImplB5cxx11Ev.exit, !prof !6

init.check.i:                                     ; preds = %entry
  %1 = tail call i32 @__cxa_guard_acquire(ptr nonnull @_ZGVZN8facebook5velox12_GLOBAL__N_123getNamedVectorSerdeImplB5cxx11EvE10namedSerdeB5cxx11) #21
  %tobool.not.i = icmp eq i32 %1, 0
  br i1 %tobool.not.i, label %_ZN8facebook5velox12_GLOBAL__N_123getNamedVectorSerdeImplB5cxx11Ev.exit, label %init.i

init.i:                                           ; preds = %init.check.i
  store ptr getelementptr inbounds (%"class.std::unordered_map", ptr @_ZZN8facebook5velox12_GLOBAL__N_123getNamedVectorSerdeImplB5cxx11EvE10namedSerdeB5cxx11, i64 0, i32 0, i32 5), ptr @_ZZN8facebook5velox12_GLOBAL__N_123getNamedVectorSerdeImplB5cxx11EvE10namedSerdeB5cxx11, align 8
  store i64 1, ptr getelementptr inbounds (%"class.std::unordered_map", ptr @_ZZN8facebook5velox12_GLOBAL__N_123getNamedVectorSerdeImplB5cxx11EvE10namedSerdeB5cxx11, i64 0, i32 0, i32 1), align 8
  tail call void @llvm.memset.p0.i64(ptr noundef nonnull align 8 dereferenceable(16) getelementptr inbounds (%"class.std::unordered_map", ptr @_ZZN8facebook5velox12_GLOBAL__N_123getNamedVectorSerdeImplB5cxx11EvE10namedSerdeB5cxx11, i64 0, i32 0, i32 2, i32 0), i8 0, i64 16, i1 false)
  store float 1.000000e+00, ptr getelementptr inbounds (%"class.std::unordered_map", ptr @_ZZN8facebook5velox12_GLOBAL__N_123getNamedVectorSerdeImplB5cxx11EvE10namedSerdeB5cxx11, i64 0, i32 0, i32 4, i32 0), align 8
  tail call void @llvm.memset.p0.i64(ptr noundef nonnull align 8 dereferenceable(16) getelementptr inbounds (%"class.std::unordered_map", ptr @_ZZN8facebook5velox12_GLOBAL__N_123getNamedVectorSerdeImplB5cxx11EvE10namedSerdeB5cxx11, i64 0, i32 0, i32 4, i32 1), i8 0, i64 16, i1 false)
  %2 = tail call i32 @__cxa_atexit(ptr nonnull @_ZNSt13unordered_mapINSt7__cxx1112basic_stringIcSt11char_traitsIcESaIcEEESt10unique_ptrIN8facebook5velox11VectorSerdeESt14default_deleteIS9_EESt4hashIS5_ESt8equal_toIS5_ESaISt4pairIKS5_SC_EEED2Ev, ptr nonnull @_ZZN8facebook5velox12_GLOBAL__N_123getNamedVectorSerdeImplB5cxx11EvE10namedSerdeB5cxx11, ptr nonnull @__dso_handle) #21
  tail call void @__cxa_guard_release(ptr nonnull @_ZGVZN8facebook5velox12_GLOBAL__N_123getNamedVectorSerdeImplB5cxx11EvE10namedSerdeB5cxx11) #21
  br label %_ZN8facebook5velox12_GLOBAL__N_123getNamedVectorSerdeImplB5cxx11Ev.exit

_ZN8facebook5velox12_GLOBAL__N_123getNamedVectorSerdeImplB5cxx11Ev.exit: ; preds = %entry, %init.check.i, %init.i
  call void @_ZNSaIcEC1Ev(ptr noundef nonnull align 1 dereferenceable(1) %ref.tmp1) #21
  call void @llvm.lifetime.start.p0(i64 16, ptr nonnull %agg.tmp.i)
  %call.i = call { i64, ptr } @_ZNSt7__cxx1112basic_stringIcSt11char_traitsIcESaIcEE17_S_to_string_viewESt17basic_string_viewIcS2_E(i64 %serdeName.coerce0, ptr %serdeName.coerce1) #21
  %3 = extractvalue { i64, ptr } %call.i, 0
  %4 = extractvalue { i64, ptr } %call.i, 1
  call void @_ZNSt7__cxx1112basic_stringIcSt11char_traitsIcESaIcEE12__sv_wrapperC1ESt17basic_string_viewIcS2_E(ptr noundef nonnull align 8 dereferenceable(16) %agg.tmp.i, i64 %3, ptr %4) #21
  %5 = load i64, ptr %agg.tmp.i, align 8
  %6 = getelementptr inbounds i8, ptr %agg.tmp.i, i64 8
  %7 = load ptr, ptr %6, align 8
  invoke void @_ZNSt7__cxx1112basic_stringIcSt11char_traitsIcESaIcEEC2ENS4_12__sv_wrapperERKS3_(ptr noundef nonnull align 8 dereferenceable(32) %ref.tmp, i64 %5, ptr %7, ptr noundef nonnull align 1 dereferenceable(1) %ref.tmp1)
          to label %invoke.cont unwind label %lpad

invoke.cont:                                      ; preds = %_ZN8facebook5velox12_GLOBAL__N_123getNamedVectorSerdeImplB5cxx11Ev.exit
  call void @llvm.lifetime.end.p0(i64 16, ptr nonnull %agg.tmp.i)
  %call.i.i2 = invoke noundef i64 @_ZNSt10_HashtableINSt7__cxx1112basic_stringIcSt11char_traitsIcESaIcEEESt4pairIKS5_St10unique_ptrIN8facebook5velox11VectorSerdeESt14default_deleteISB_EEESaISF_ENSt8__detail10_Select1stESt8equal_toIS5_ESt4hashIS5_ENSH_18_Mod_range_hashingENSH_20_Default_ranged_hashENSH_20_Prime_rehash_policyENSH_17_Hashtable_traitsILb1ELb0ELb1EEEE8_M_eraseESt17integral_constantIbLb1EERS7_(ptr noundef nonnull align 8 dereferenceable(56) @_ZZN8facebook5velox12_GLOBAL__N_123getNamedVectorSerdeImplB5cxx11EvE10namedSerdeB5cxx11, ptr noundef nonnull align 8 dereferenceable(32) %ref.tmp)
          to label %invoke.cont3 unwind label %lpad2

invoke.cont3:                                     ; preds = %invoke.cont
  call void @_ZNSt7__cxx1112basic_stringIcSt11char_traitsIcESaIcEED1Ev(ptr noundef nonnull align 8 dereferenceable(32) %ref.tmp) #21
  call void @_ZNSaIcED1Ev(ptr noundef nonnull align 1 dereferenceable(1) %ref.tmp1) #21
  ret void

lpad:                                             ; preds = %_ZN8facebook5velox12_GLOBAL__N_123getNamedVectorSerdeImplB5cxx11Ev.exit
  %8 = landingpad { ptr, i32 }
          cleanup
  br label %ehcleanup

lpad2:                                            ; preds = %invoke.cont
  %9 = landingpad { ptr, i32 }
          cleanup
  call void @_ZNSt7__cxx1112basic_stringIcSt11char_traitsIcESaIcEED1Ev(ptr noundef nonnull align 8 dereferenceable(32) %ref.tmp) #21
  br label %ehcleanup

ehcleanup:                                        ; preds = %lpad2, %lpad
  %.pn = phi { ptr, i32 } [ %9, %lpad2 ], [ %8, %lpad ]
  call void @_ZNSaIcED1Ev(ptr noundef nonnull align 1 dereferenceable(1) %ref.tmp1) #21
  resume { ptr, i32 } %.pn
}